; Function Attrs: mustprogress uwtable
define hidden void @_ZN4lean17is_builtin_scalarERKNS_4exprE(ptr dead_on_unwind noalias writable writeonly sret(%"class.lean::optional") align 4 captures(none) %0, ptr noundef nonnull readonly align 8 captures(none) dereferenceable(8) %1) local_unnamed_addr #0 {
  %3 = load ptr, ptr %1, align 8, !tbaa !3
  %4 = getelementptr i8, ptr %3, i64 4
  %.val.i.i.i.i.i = load i32, ptr %4, align 4
  %.mask.i.i = and i32 %.val.i.i.i.i.i, -16777216
  %5 = icmp eq i32 %.mask.i.i, 67108864
  br i1 %5, label %7, label %6

6:                                                ; preds = %2
  store i8 0, ptr %0, align 4, !tbaa !8
  br label %22

7:                                                ; preds = %2
  %8 = load ptr, ptr @_ZN4lean21g_builtin_scalar_sizeE, align 8, !tbaa !184
  %9 = load ptr, ptr %8, align 8, !tbaa !186
  %10 = getelementptr inbounds nuw i8, ptr %8, i64 8
  %11 = load ptr, ptr %10, align 8, !tbaa !186
  %.not15 = icmp eq ptr %9, %11
  br i1 %.not15, label %._crit_edge, label %.lr.ph

.lr.ph:                                           ; preds = %7, %.critedge
  %.sroa.07.016 = phi ptr [ %17, %.critedge ], [ %9, %7 ]
  %12 = load ptr, ptr %1, align 8, !tbaa !3
  %13 = getelementptr inbounds nuw i8, ptr %12, i64 8
  %14 = load ptr, ptr %13, align 8, !tbaa !3
  %15 = load ptr, ptr %.sroa.07.016, align 8, !tbaa !3
  %16 = tail call zeroext i8 @lean_name_eq(ptr noundef %14, ptr noundef %15)
  %.not13 = icmp eq i8 %16, 0
  br i1 %.not13, label %.critedge, label %18

.critedge:                                        ; preds = %.lr.ph
  %17 = getelementptr inbounds nuw i8, ptr %.sroa.07.016, i64 16
  %.not = icmp eq ptr %17, %11
  br i1 %.not, label %._crit_edge, label %.lr.ph

18:                                               ; preds = %.lr.ph
  %19 = getelementptr inbounds nuw i8, ptr %.sroa.07.016, i64 8
  store i8 1, ptr %0, align 4, !tbaa !8
  %20 = getelementptr inbounds nuw i8, ptr %0, i64 4
  %21 = load i32, ptr %19, align 4, !tbaa !11
  store i32 %21, ptr %20, align 4, !tbaa !11
  br label %22

._crit_edge:                                      ; preds = %.critedge, %7
  store i8 0, ptr %0, align 4, !tbaa !8
  br label %22

22:                                               ; preds = %18, %._crit_edge, %6
  ret void
}